target datalayout = "e-m:e-p270:32:32-p271:32:32-p272:64:64-i64:64-i128:128-f80:128-n8:16:32:64-S128"
target triple = "x86_64-pc-linux-gnu"

%struct.stbtt_pack_context = type { ptr, ptr, i32, i32, i32, i32, i32, i32, ptr, ptr }
%struct.stbrp_context = type { i32, i32, i32, i32, i32 }

; Function Attrs: mustprogress nounwind uwtable
define internal void @_ZL17stbrp_init_targetP13stbrp_contextiiP10stbrp_nodei(ptr noundef %0, i32 noundef %1, i32 noundef %2, ptr noundef %3, i32 noundef %4) #1 {
  %6 = alloca ptr, align 8
  %7 = alloca i32, align 4
  %8 = alloca i32, align 4
  %9 = alloca ptr, align 8
  %10 = alloca i32, align 4
  store ptr %0, ptr %6, align 8
  store i32 %1, ptr %7, align 4
  store i32 %2, ptr %8, align 4
  store ptr %3, ptr %9, align 8
  store i32 %4, ptr %10, align 4
  %11 = load i32, ptr %7, align 4
  %12 = load ptr, ptr %6, align 8
  %13 = getelementptr inbounds %struct.stbrp_context, ptr %12, i32 0, i32 0
  store i32 %11, ptr %13, align 4
  %14 = load i32, ptr %8, align 4
  %15 = load ptr, ptr %6, align 8
  %16 = getelementptr inbounds %struct.stbrp_context, ptr %15, i32 0, i32 1
  store i32 %14, ptr %16, align 4
  %17 = load ptr, ptr %6, align 8
  %18 = getelementptr inbounds %struct.stbrp_context, ptr %17, i32 0, i32 2
  store i32 0, ptr %18, align 4
  %19 = load ptr, ptr %6, align 8
  %20 = getelementptr inbounds %struct.stbrp_context, ptr %19, i32 0, i32 3
  store i32 0, ptr %20, align 4
  %21 = load ptr, ptr %6, align 8
  %22 = getelementptr inbounds %struct.stbrp_context, ptr %21, i32 0, i32 4
  store i32 0, ptr %22, align 4
  ret void
}

; Function Attrs: mustprogress nounwind uwtable
define dso_local void @_Z9imguifreePvS_(ptr noundef %0, ptr noundef %1) #1 {
  %3 = alloca ptr, align 8
  %4 = alloca ptr, align 8
  store ptr %0, ptr %3, align 8
  store ptr %1, ptr %4, align 8
  %5 = load ptr, ptr %3, align 8
  call void @free(ptr noundef %5) #10
  ret void
}

; Function Attrs: mustprogress nounwind uwtable
define dso_local noundef ptr @_Z11imguimallocmPv(i64 noundef %0, ptr noundef %1) #1 {
  %3 = alloca i64, align 8
  %4 = alloca ptr, align 8
  store i64 %0, ptr %3, align 8
  store ptr %1, ptr %4, align 8
  %5 = load i64, ptr %3, align 8
  %6 = call noalias ptr @malloc(i64 noundef %5) #9
  ret ptr %6
}

; Function Attrs: mustprogress uwtable
define dso_local i32 @stbtt_PackBegin(ptr noundef %0, ptr noundef %1, i32 noundef %2, i32 noundef %3, i32 noundef %4, i32 noundef %5, ptr noundef %6) #0 {
  %8 = alloca i32, align 4
  %9 = alloca ptr, align 8
  %10 = alloca ptr, align 8
  %11 = alloca i32, align 4
  %12 = alloca i32, align 4
  %13 = alloca i32, align 4
  %14 = alloca i32, align 4
  %15 = alloca ptr, align 8
  %16 = alloca ptr, align 8
  %17 = alloca i32, align 4
  %18 = alloca ptr, align 8
  store ptr %0, ptr %9, align 8
  store ptr %1, ptr %10, align 8
  store i32 %2, ptr %11, align 4
  store i32 %3, ptr %12, align 4
  store i32 %4, ptr %13, align 4
  store i32 %5, ptr %14, align 4
  store ptr %6, ptr %15, align 8
  %19 = load ptr, ptr %15, align 8
  %20 = call noundef ptr @_Z11imguimallocmPv(i64 noundef 20, ptr noundef %19)
  store ptr %20, ptr %16, align 8
  %21 = load i32, ptr %11, align 4
  %22 = load i32, ptr %14, align 4
  %23 = sub nsw i32 %21, %22
  store i32 %23, ptr %17, align 4
  %24 = load i32, ptr %17, align 4
  %25 = sext i32 %24 to i64
  %26 = mul i64 1, %25
  %27 = load ptr, ptr %15, align 8
  %28 = call noundef ptr @_Z11imguimallocmPv(i64 noundef %26, ptr noundef %27)
  store ptr %28, ptr %18, align 8
  %29 = load ptr, ptr %16, align 8
  %30 = icmp eq ptr %29, null
  br i1 %30, label %34, label %31

31:                                               ; preds = %7
  %32 = load ptr, ptr %18, align 8
  %33 = icmp eq ptr %32, null
  br i1 %33, label %34, label %47

34:                                               ; preds = %31, %7
  %35 = load ptr, ptr %16, align 8
  %36 = icmp ne ptr %35, null
  br i1 %36, label %37, label %40

37:                                               ; preds = %34
  %38 = load ptr, ptr %16, align 8
  %39 = load ptr, ptr %15, align 8
  call void @_Z9imguifreePvS_(ptr noundef %38, ptr noundef %39)
  br label %40

40:                                               ; preds = %37, %34
  %41 = load ptr, ptr %18, align 8
  %42 = icmp ne ptr %41, null
  br i1 %42, label %43, label %46

43:                                               ; preds = %40
  %44 = load ptr, ptr %18, align 8
  %45 = load ptr, ptr %15, align 8
  call void @_Z9imguifreePvS_(ptr noundef %44, ptr noundef %45)
  br label %46

46:                                               ; preds = %43, %40
  store i32 0, ptr %8, align 4
  br label %101

47:                                               ; preds = %31
  %48 = load ptr, ptr %15, align 8
  %49 = load ptr, ptr %9, align 8
  %50 = getelementptr inbounds %struct.stbtt_pack_context, ptr %49, i32 0, i32 0
  store ptr %48, ptr %50, align 8
  %51 = load i32, ptr %11, align 4
  %52 = load ptr, ptr %9, align 8
  %53 = getelementptr inbounds %struct.stbtt_pack_context, ptr %52, i32 0, i32 2
  store i32 %51, ptr %53, align 8
  %54 = load i32, ptr %12, align 4
  %55 = load ptr, ptr %9, align 8
  %56 = getelementptr inbounds %struct.stbtt_pack_context, ptr %55, i32 0, i32 3
  store i32 %54, ptr %56, align 4
  %57 = load ptr, ptr %10, align 8
  %58 = load ptr, ptr %9, align 8
  %59 = getelementptr inbounds %struct.stbtt_pack_context, ptr %58, i32 0, i32 8
  store ptr %57, ptr %59, align 8
  %60 = load ptr, ptr %16, align 8
  %61 = load ptr, ptr %9, align 8
  %62 = getelementptr inbounds %struct.stbtt_pack_context, ptr %61, i32 0, i32 1
  store ptr %60, ptr %62, align 8
  %63 = load ptr, ptr %18, align 8
  %64 = load ptr, ptr %9, align 8
  %65 = getelementptr inbounds %struct.stbtt_pack_context, ptr %64, i32 0, i32 9
  store ptr %63, ptr %65, align 8
  %66 = load i32, ptr %14, align 4
  %67 = load ptr, ptr %9, align 8
  %68 = getelementptr inbounds %struct.stbtt_pack_context, ptr %67, i32 0, i32 5
  store i32 %66, ptr %68, align 4
  %69 = load i32, ptr %13, align 4
  %70 = icmp ne i32 %69, 0
  br i1 %70, label %71, label %73

71:                                               ; preds = %47
  %72 = load i32, ptr %13, align 4
  br label %75

73:                                               ; preds = %47
  %74 = load i32, ptr %11, align 4
  br label %75

75:                                               ; preds = %73, %71
  %76 = phi i32 [ %72, %71 ], [ %74, %73 ]
  %77 = load ptr, ptr %9, align 8
  %78 = getelementptr inbounds %struct.stbtt_pack_context, ptr %77, i32 0, i32 4
  store i32 %76, ptr %78, align 8
  %79 = load ptr, ptr %9, align 8
  %80 = getelementptr inbounds %struct.stbtt_pack_context, ptr %79, i32 0, i32 6
  store i32 1, ptr %80, align 8
  %81 = load ptr, ptr %9, align 8
  %82 = getelementptr inbounds %struct.stbtt_pack_context, ptr %81, i32 0, i32 7
  store i32 1, ptr %82, align 4
  %83 = load ptr, ptr %16, align 8
  %84 = load i32, ptr %11, align 4
  %85 = load i32, ptr %14, align 4
  %86 = sub nsw i32 %84, %85
  %87 = load i32, ptr %12, align 4
  %88 = load i32, ptr %14, align 4
  %89 = sub nsw i32 %87, %88
  %90 = load ptr, ptr %18, align 8
  %91 = load i32, ptr %17, align 4
  call void @_ZL17stbrp_init_targetP13stbrp_contextiiP10stbrp_nodei(ptr noundef %83, i32 noundef %86, i32 noundef %89, ptr noundef %90, i32 noundef %91)
  %92 = load ptr, ptr %10, align 8
  %93 = icmp ne ptr %92, null
  br i1 %93, label %94, label %100

94:                                               ; preds = %75
  %95 = load ptr, ptr %10, align 8
  %96 = load i32, ptr %11, align 4
  %97 = load i32, ptr %12, align 4
  %98 = mul nsw i32 %96, %97
  %99 = sext i32 %98 to i64
  call void @llvm.memset.p0.i64(ptr align 1 %95, i8 0, i64 %99, i1 false)
  br label %100

100:                                              ; preds = %94, %75
  store i32 1, ptr %8, align 4
  br label %101

101:                                              ; preds = %100, %46
  %102 = load i32, ptr %8, align 4
  ret i32 %102
}